target datalayout = "e-m:e-p270:32:32-p271:32:32-p272:64:64-i64:64-i128:128-f80:128-n8:16:32:64-S128"
target triple = "x86_64-unknown-linux-gnu"

%struct.EHCIState = type { %struct.USBBus, ptr, ptr, %struct.MemoryRegion, ptr, %struct.MemoryRegion, %struct.MemoryRegion, %struct.MemoryRegion, i32, i8, i16, i16, i16, i16, i32, [16 x i8], %union.anon.5, [6 x i32], ptr, ptr, i8, i32, i32, [6 x %struct.USBPort], [6 x ptr], i32, i32, %union.EHCIQueueHead, %union.EHCIQueueHead, i32, i32, %struct.USBPacket, %struct.QEMUSGList, i64, i32, i32, i8, ptr }
%struct.USBBus = type { %struct.BusState, ptr, i32, i32, i32, %union.anon, %union.anon.0, %union.anon.1 }
%struct.BusState = type { %struct.Object, ptr, ptr, ptr, i32, i8, i8, i32, %union.BusChildHead, %struct.BusStateEntry, %struct.ResettableState }
%struct.Object = type { ptr, ptr, ptr, i32, ptr }
%union.BusChildHead = type { %struct.QTailQLink }
%struct.QTailQLink = type { ptr, ptr }
%struct.BusStateEntry = type { ptr, ptr }
%struct.ResettableState = type { i32, i8, i8 }
%union.anon = type { %struct.QTailQLink }
%union.anon.0 = type { %struct.QTailQLink }
%union.anon.1 = type { %struct.QTailQLink }
%struct.MemoryRegion = type { %struct.Object, i8, i8, i8, i8, i8, i8, i8, i8, i8, i8, ptr, ptr, ptr, ptr, ptr, ptr, i32, i128, i64, ptr, i64, i8, i8, i8, i8, i8, ptr, i64, i32, %union.anon.2, %union.anon.3, %union.anon.4, ptr, i32, ptr, ptr, i8 }
%union.anon.2 = type { %struct.QTailQLink }
%union.anon.3 = type { %struct.QTailQLink }
%union.anon.4 = type { %struct.QTailQLink }
%union.anon.5 = type { [17 x i32] }
%struct.USBPort = type { ptr, i32, i32, [16 x i8], ptr, ptr, i32, %union.anon.6 }
%union.anon.6 = type { %struct.QTailQLink }
%union.EHCIQueueHead = type { %struct.QTailQLink }
%struct.USBPacket = type { i32, i64, ptr, i32, %struct.QEMUIOVector, i64, i8, i8, i32, i32, i32, ptr, %union.anon.10, %union.anon.11 }
%struct.QEMUIOVector = type { ptr, i32, %union.anon.7 }
%union.anon.7 = type { %struct.anon.8 }
%struct.anon.8 = type { i32, %struct.iovec }
%struct.iovec = type { ptr, i64 }
%union.anon.10 = type { %struct.QTailQLink }
%union.anon.11 = type { %struct.QTailQLink }
%struct.QEMUSGList = type { ptr, i32, i32, i64, ptr, ptr }
%struct.EHCIQueue = type { ptr, %union.anon.16, i32, i64, i32, i32, %struct.EHCIqh, i32, i32, i32, ptr, %union.anon.17 }
%union.anon.16 = type { %struct.QTailQLink }
%struct.EHCIqh = type { i32, i32, i32, i32, i32, i32, i32, [5 x i32] }
%union.anon.17 = type { %struct.QTailQLink }
%struct.timeval = type { i64, i64 }

@trace_events_enabled_count = external global i32, align 4
@message_with_timestamp = external global i8, align 1
@qemu_loglevel = external global i32, align 4
@.str.36 = private unnamed_addr constant [34 x i8] c"guest stopped busy async schedule\00", align 1
@_TRACE_USB_EHCI_UNREALIZE_DSTATE = external global i16, align 2
@.str.142 = private unnamed_addr constant [51 x i8] c"%d@%zu.%06zu:usb_ehci_unrealize === UNREALIZE ===\0A\00", align 1
@.str.143 = private unnamed_addr constant [38 x i8] c"usb_ehci_unrealize === UNREALIZE ===\0A\00", align 1

; Function Attrs: nounwind sspstrong uwtable
define internal zeroext i1 @qemu_loglevel_mask(i32 noundef %mask) #0 {
entry:
  %mask.addr = alloca i32, align 4
  store i32 %mask, ptr %mask.addr, align 4
  %0 = load i32, ptr @qemu_loglevel, align 4
  %1 = load i32, ptr %mask.addr, align 4
  %and = and i32 %0, %1
  %cmp = icmp ne i32 %and, 0
  ret i1 %cmp
}

; Function Attrs: nounwind sspstrong uwtable
define internal void @_nocheck__trace_usb_ehci_unrealize() #0 {
entry:
  %_now = alloca %struct.timeval, align 8
  %0 = load i32, ptr @trace_events_enabled_count, align 4
  %tobool = icmp ne i32 %0, 0
  %lnot = xor i1 %tobool, true
  %lnot1 = xor i1 %lnot, true
  %lnot.ext = zext i1 %lnot1 to i32
  %conv = sext i32 %lnot.ext to i64
  %tobool2 = icmp ne i64 %conv, 0
  br i1 %tobool2, label %land.lhs.true, label %if.end11

land.lhs.true:                                    ; preds = %entry
  %1 = load i16, ptr @_TRACE_USB_EHCI_UNREALIZE_DSTATE, align 2
  %conv3 = zext i16 %1 to i32
  %tobool4 = icmp ne i32 %conv3, 0
  br i1 %tobool4, label %land.lhs.true5, label %if.end11

land.lhs.true5:                                   ; preds = %land.lhs.true
  %call = call zeroext i1 @qemu_loglevel_mask(i32 noundef 32768)
  br i1 %call, label %if.then, label %if.end11

if.then:                                          ; preds = %land.lhs.true5
  %2 = load i8, ptr @message_with_timestamp, align 1
  %tobool7 = trunc i8 %2 to i1
  br i1 %tobool7, label %if.then8, label %if.else

if.then8:                                         ; preds = %if.then
  %call9 = call i32 @gettimeofday(ptr noundef %_now, ptr noundef null) #10
  %call10 = call i32 @qemu_get_thread_id()
  %tv_sec = getelementptr inbounds %struct.timeval, ptr %_now, i32 0, i32 0
  %3 = load i64, ptr %tv_sec, align 8
  %tv_usec = getelementptr inbounds %struct.timeval, ptr %_now, i32 0, i32 1
  %4 = load i64, ptr %tv_usec, align 8
  call void (ptr, ...) @qemu_log(ptr noundef @.str.142, i32 noundef %call10, i64 noundef %3, i64 noundef %4)
  br label %if.end

if.else:                                          ; preds = %if.then
  call void (ptr, ...) @qemu_log(ptr noundef @.str.143)
  br label %if.end

if.end:                                           ; preds = %if.else, %if.then8
  br label %if.end11

if.end11:                                         ; preds = %if.end, %land.lhs.true5, %land.lhs.true, %entry
  ret void
}

; Function Attrs: nounwind sspstrong uwtable
define internal void @ehci_queues_rip_all(ptr noundef %ehci, i32 noundef %async) #0 {
entry:
  %ehci.addr = alloca ptr, align 8
  %async.addr = alloca i32, align 4
  %head = alloca ptr, align 8
  %warn = alloca ptr, align 8
  %q = alloca ptr, align 8
  %tmp = alloca ptr, align 8
  store ptr %ehci, ptr %ehci.addr, align 8
  store i32 %async, ptr %async.addr, align 4
  %0 = load i32, ptr %async.addr, align 4
  %tobool = icmp ne i32 %0, 0
  br i1 %tobool, label %cond.true, label %cond.false

cond.true:                                        ; preds = %entry
  %1 = load ptr, ptr %ehci.addr, align 8
  %aqueues = getelementptr inbounds %struct.EHCIState, ptr %1, i32 0, i32 27
  br label %cond.end

cond.false:                                       ; preds = %entry
  %2 = load ptr, ptr %ehci.addr, align 8
  %pqueues = getelementptr inbounds %struct.EHCIState, ptr %2, i32 0, i32 28
  br label %cond.end

cond.end:                                         ; preds = %cond.false, %cond.true
  %cond = phi ptr [ %aqueues, %cond.true ], [ %pqueues, %cond.false ]
  store ptr %cond, ptr %head, align 8
  %3 = load i32, ptr %async.addr, align 4
  %tobool1 = icmp ne i32 %3, 0
  %cond2 = select i1 %tobool1, ptr @.str.36, ptr null
  store ptr %cond2, ptr %warn, align 8
  %4 = load ptr, ptr %head, align 8
  %5 = load ptr, ptr %4, align 8
  store ptr %5, ptr %q, align 8
  br label %for.cond

for.cond:                                         ; preds = %for.inc, %cond.end
  %6 = load ptr, ptr %q, align 8
  %tobool3 = icmp ne ptr %6, null
  br i1 %tobool3, label %land.rhs, label %land.end

land.rhs:                                         ; preds = %for.cond
  %7 = load ptr, ptr %q, align 8
  %next = getelementptr inbounds %struct.EHCIQueue, ptr %7, i32 0, i32 1
  %8 = load ptr, ptr %next, align 8
  store ptr %8, ptr %tmp, align 8
  br label %land.end

land.end:                                         ; preds = %land.rhs, %for.cond
  %9 = phi i1 [ false, %for.cond ], [ true, %land.rhs ]
  br i1 %9, label %for.body, label %for.end

for.body:                                         ; preds = %land.end
  %10 = load ptr, ptr %q, align 8
  %11 = load ptr, ptr %warn, align 8
  call void @ehci_free_queue(ptr noundef %10, ptr noundef %11)
  br label %for.inc

for.inc:                                          ; preds = %for.body
  %12 = load ptr, ptr %tmp, align 8
  store ptr %12, ptr %q, align 8
  br label %for.cond, !llvm.loop !8

for.end:                                          ; preds = %land.end
  ret void
}

; Function Attrs: nounwind sspstrong uwtable
define internal void @timer_free(ptr noundef %ts) #0 {
entry:
  %ts.addr = alloca ptr, align 8
  store ptr %ts, ptr %ts.addr, align 8
  %0 = load ptr, ptr %ts.addr, align 8
  %tobool = icmp ne ptr %0, null
  br i1 %tobool, label %if.then, label %if.end

if.then:                                          ; preds = %entry
  %1 = load ptr, ptr %ts.addr, align 8
  call void @timer_del(ptr noundef %1)
  %2 = load ptr, ptr %ts.addr, align 8
  call void @g_free(ptr noundef %2)
  br label %if.end

if.end:                                           ; preds = %if.then, %entry
  ret void
}

; Function Attrs: nounwind sspstrong uwtable
define internal void @trace_usb_ehci_unrealize() #0 {
entry:
  call void @_nocheck__trace_usb_ehci_unrealize()
  ret void
}

; Function Attrs: nounwind sspstrong uwtable
define dso_local void @usb_ehci_unrealize(ptr noundef %s, ptr noundef %dev) #0 {
entry:
  %s.addr = alloca ptr, align 8
  %dev.addr = alloca ptr, align 8
  store ptr %s, ptr %s.addr, align 8
  store ptr %dev, ptr %dev.addr, align 8
  call void @trace_usb_ehci_unrealize()
  %0 = load ptr, ptr %s.addr, align 8
  %frame_timer = getelementptr inbounds %struct.EHCIState, ptr %0, i32 0, i32 18
  %1 = load ptr, ptr %frame_timer, align 16
  %tobool = icmp ne ptr %1, null
  br i1 %tobool, label %if.then, label %if.end

if.then:                                          ; preds = %entry
  %2 = load ptr, ptr %s.addr, align 8
  %frame_timer1 = getelementptr inbounds %struct.EHCIState, ptr %2, i32 0, i32 18
  %3 = load ptr, ptr %frame_timer1, align 16
  call void @timer_free(ptr noundef %3)
  %4 = load ptr, ptr %s.addr, align 8
  %frame_timer2 = getelementptr inbounds %struct.EHCIState, ptr %4, i32 0, i32 18
  store ptr null, ptr %frame_timer2, align 16
  br label %if.end

if.end:                                           ; preds = %if.then, %entry
  %5 = load ptr, ptr %s.addr, align 8
  %async_bh = getelementptr inbounds %struct.EHCIState, ptr %5, i32 0, i32 19
  %6 = load ptr, ptr %async_bh, align 8
  %tobool3 = icmp ne ptr %6, null
  br i1 %tobool3, label %if.then4, label %if.end6

if.then4:                                         ; preds = %if.end
  %7 = load ptr, ptr %s.addr, align 8
  %async_bh5 = getelementptr inbounds %struct.EHCIState, ptr %7, i32 0, i32 19
  %8 = load ptr, ptr %async_bh5, align 8
  call void @qemu_bh_delete(ptr noundef %8)
  br label %if.end6

if.end6:                                          ; preds = %if.then4, %if.end
  %9 = load ptr, ptr %s.addr, align 8
  call void @ehci_queues_rip_all(ptr noundef %9, i32 noundef 0)
  %10 = load ptr, ptr %s.addr, align 8
  call void @ehci_queues_rip_all(ptr noundef %10, i32 noundef 1)
  %11 = load ptr, ptr %s.addr, align 8
  %mem = getelementptr inbounds %struct.EHCIState, ptr %11, i32 0, i32 3
  %12 = load ptr, ptr %s.addr, align 8
  %mem_caps = getelementptr inbounds %struct.EHCIState, ptr %12, i32 0, i32 5
  call void @memory_region_del_subregion(ptr noundef %mem, ptr noundef %mem_caps)
  %13 = load ptr, ptr %s.addr, align 8
  %mem7 = getelementptr inbounds %struct.EHCIState, ptr %13, i32 0, i32 3
  %14 = load ptr, ptr %s.addr, align 8
  %mem_opreg = getelementptr inbounds %struct.EHCIState, ptr %14, i32 0, i32 6
  call void @memory_region_del_subregion(ptr noundef %mem7, ptr noundef %mem_opreg)
  %15 = load ptr, ptr %s.addr, align 8
  %mem8 = getelementptr inbounds %struct.EHCIState, ptr %15, i32 0, i32 3
  %16 = load ptr, ptr %s.addr, align 8
  %mem_ports = getelementptr inbounds %struct.EHCIState, ptr %16, i32 0, i32 7
  call void @memory_region_del_subregion(ptr noundef %mem8, ptr noundef %mem_ports)
  %17 = load ptr, ptr %s.addr, align 8
  %bus = getelementptr inbounds %struct.EHCIState, ptr %17, i32 0, i32 0
  call void @usb_bus_release(ptr noundef %bus)
  %18 = load ptr, ptr %s.addr, align 8
  %vmstate = getelementptr inbounds %struct.EHCIState, ptr %18, i32 0, i32 37
  %19 = load ptr, ptr %vmstate, align 8
  %tobool9 = icmp ne ptr %19, null
  br i1 %tobool9, label %if.then10, label %if.end12

if.then10:                                        ; preds = %if.end6
  %20 = load ptr, ptr %s.addr, align 8
  %vmstate11 = getelementptr inbounds %struct.EHCIState, ptr %20, i32 0, i32 37
  %21 = load ptr, ptr %vmstate11, align 8
  call void @qemu_del_vm_change_state_handler(ptr noundef %21)
  br label %if.end12

if.end12:                                         ; preds = %if.then10, %if.end6
  ret void
}