; Function Attrs: nounwind sspstrong uwtable
define dso_local void @usb_ehci_unrealize(ptr noundef %s, ptr noundef readnone captures(none) %dev) local_unnamed_addr #0 {
entry:
  %_now.i.i = alloca %struct.timeval, align 8
  call void @llvm.lifetime.start.p0(i64 16, ptr nonnull %_now.i.i)
  %0 = load i32, ptr @trace_events_enabled_count, align 4
  %tobool.i.i = icmp ne i32 %0, 0
  %1 = load i16, ptr @_TRACE_USB_EHCI_UNREALIZE_DSTATE, align 2
  %tobool4.i.i = icmp ne i16 %1, 0
  %or.cond.i.i = select i1 %tobool.i.i, i1 %tobool4.i.i, i1 false
  br i1 %or.cond.i.i, label %land.lhs.true5.i.i, label %trace_usb_ehci_unrealize.exit

land.lhs.true5.i.i:                               ; preds = %entry
  %2 = load i32, ptr @qemu_loglevel, align 4
  %and.i.i.i = and i32 %2, 32768
  %cmp.i.not.i.i = icmp eq i32 %and.i.i.i, 0
  br i1 %cmp.i.not.i.i, label %trace_usb_ehci_unrealize.exit, label %if.then.i.i

if.then.i.i:                                      ; preds = %land.lhs.true5.i.i
  %3 = load i8, ptr @message_with_timestamp, align 1
  %tobool7.i.i = trunc i8 %3 to i1
  br i1 %tobool7.i.i, label %if.then8.i.i, label %if.else.i.i

if.then8.i.i:                                     ; preds = %if.then.i.i
  %call9.i.i = call i32 @gettimeofday(ptr noundef nonnull %_now.i.i, ptr noundef null) #17
  %call10.i.i = tail call i32 @qemu_get_thread_id() #17
  %4 = load i64, ptr %_now.i.i, align 8
  %tv_usec.i.i = getelementptr inbounds nuw i8, ptr %_now.i.i, i64 8
  %5 = load i64, ptr %tv_usec.i.i, align 8
  tail call void (ptr, ...) @qemu_log(ptr noundef nonnull @.str.142, i32 noundef %call10.i.i, i64 noundef %4, i64 noundef %5) #17
  br label %trace_usb_ehci_unrealize.exit

if.else.i.i:                                      ; preds = %if.then.i.i
  tail call void (ptr, ...) @qemu_log(ptr noundef nonnull @.str.143) #17
  br label %trace_usb_ehci_unrealize.exit

trace_usb_ehci_unrealize.exit:                    ; preds = %entry, %land.lhs.true5.i.i, %if.then8.i.i, %if.else.i.i
  call void @llvm.lifetime.end.p0(i64 16, ptr nonnull %_now.i.i)
  %frame_timer = getelementptr inbounds nuw i8, ptr %s, i64 1440
  %6 = load ptr, ptr %frame_timer, align 16
  %tobool.not = icmp eq ptr %6, null
  br i1 %tobool.not, label %if.end, label %if.then

if.then:                                          ; preds = %trace_usb_ehci_unrealize.exit
  tail call void @timer_del(ptr noundef nonnull %6) #17
  tail call void @g_free(ptr noundef nonnull %6) #17
  store ptr null, ptr %frame_timer, align 16
  br label %if.end

if.end:                                           ; preds = %if.then, %trace_usb_ehci_unrealize.exit
  %async_bh = getelementptr inbounds nuw i8, ptr %s, i64 1448
  %7 = load ptr, ptr %async_bh, align 8
  %tobool3.not = icmp eq ptr %7, null
  br i1 %tobool3.not, label %if.end6, label %if.then4

if.then4:                                         ; preds = %if.end
  tail call void @qemu_bh_delete(ptr noundef nonnull %7) #17
  br label %if.end6

if.end6:                                          ; preds = %if.then4, %if.end
  %cond.i = getelementptr inbounds nuw i8, ptr %s, i64 1976
  %8 = load ptr, ptr %cond.i, align 8
  %tobool3.not5.i = icmp eq ptr %8, null
  br i1 %tobool3.not5.i, label %ehci_queues_rip_all.exit, label %land.rhs.i

land.rhs.i:                                       ; preds = %if.end6, %land.rhs.i
  %q.06.i = phi ptr [ %9, %land.rhs.i ], [ %8, %if.end6 ]
  %next.i = getelementptr inbounds nuw i8, ptr %q.06.i, i64 8
  %9 = load ptr, ptr %next.i, align 8
  tail call fastcc void @ehci_free_queue(ptr noundef %q.06.i, ptr noundef null)
  %tobool3.not.i = icmp eq ptr %9, null
  br i1 %tobool3.not.i, label %ehci_queues_rip_all.exit, label %land.rhs.i, !llvm.loop !8

ehci_queues_rip_all.exit:                         ; preds = %land.rhs.i, %if.end6
  %cond.i18 = getelementptr inbounds nuw i8, ptr %s, i64 1960
  %10 = load ptr, ptr %cond.i18, align 8
  %tobool3.not5.i19 = icmp eq ptr %10, null
  br i1 %tobool3.not5.i19, label %ehci_queues_rip_all.exit24, label %land.rhs.i20

land.rhs.i20:                                     ; preds = %ehci_queues_rip_all.exit, %land.rhs.i20
  %q.06.i21 = phi ptr [ %11, %land.rhs.i20 ], [ %10, %ehci_queues_rip_all.exit ]
  %next.i22 = getelementptr inbounds nuw i8, ptr %q.06.i21, i64 8
  %11 = load ptr, ptr %next.i22, align 8
  tail call fastcc void @ehci_free_queue(ptr noundef %q.06.i21, ptr noundef nonnull @.str.36)
  %tobool3.not.i23 = icmp eq ptr %11, null
  br i1 %tobool3.not.i23, label %ehci_queues_rip_all.exit24, label %land.rhs.i20, !llvm.loop !8

ehci_queues_rip_all.exit24:                       ; preds = %land.rhs.i20, %ehci_queues_rip_all.exit
  %mem = getelementptr inbounds nuw i8, ptr %s, i64 208
  %mem_caps = getelementptr inbounds nuw i8, ptr %s, i64 496
  tail call void @memory_region_del_subregion(ptr noundef nonnull %mem, ptr noundef nonnull %mem_caps) #17
  %mem_opreg = getelementptr inbounds nuw i8, ptr %s, i64 768
  tail call void @memory_region_del_subregion(ptr noundef nonnull %mem, ptr noundef nonnull %mem_opreg) #17
  %mem_ports = getelementptr inbounds nuw i8, ptr %s, i64 1040
  tail call void @memory_region_del_subregion(ptr noundef nonnull %mem, ptr noundef nonnull %mem_ports) #17
  tail call void @usb_bus_release(ptr noundef %s) #17
  %vmstate = getelementptr inbounds nuw i8, ptr %s, i64 2200
  %12 = load ptr, ptr %vmstate, align 8
  %tobool9.not = icmp eq ptr %12, null
  br i1 %tobool9.not, label %if.end12, label %if.then10

if.then10:                                        ; preds = %ehci_queues_rip_all.exit24
  tail call void @qemu_del_vm_change_state_handler(ptr noundef nonnull %12) #17
  br label %if.end12

if.end12:                                         ; preds = %if.then10, %ehci_queues_rip_all.exit24
  ret void
}